; Function Attrs: mustprogress nofree norecurse nosync nounwind willreturn memory(read, inaccessiblemem: none) uwtable
define internal noundef i32 @phar_flush_clean_deleted_apply(ptr nocapture noundef readonly %0) #13 {
  %2 = load ptr, ptr %0, align 8
  %3 = getelementptr inbounds i8, ptr %2, i64 112
  %4 = load i32, ptr %3, align 8
  %5 = icmp slt i32 %4, 1
  br i1 %5, label %6, label %10

6:                                                ; preds = %1
  %7 = getelementptr inbounds i8, ptr %2, i64 154
  %8 = load i16, ptr %7, align 2
  %9 = and i16 %8, 4
  %.not = icmp eq i16 %9, 0
  br i1 %.not, label %10, label %11

10:                                               ; preds = %6, %1
  br label %11

11:                                               ; preds = %6, %10
  %.0 = phi i32 [ 0, %10 ], [ 1, %6 ]
  ret i32 %.0
}